; Function Attrs: nounwind uwtable
define nonnull ptr @l_Lean_Compiler_LCNF_AlphaEqv_eqvArgs___boxed(ptr noundef %0, ptr noundef %1, ptr noundef %2) local_unnamed_addr #0 {
  %4 = tail call zeroext i8 @l_Lean_Compiler_LCNF_AlphaEqv_eqvArgs(ptr noundef %0, ptr noundef %1, ptr noundef %2)
  %5 = ptrtoint ptr %2 to i64
  %6 = and i64 %5, 1
  %.not = icmp eq i64 %6, 0
  br i1 %.not, label %7, label %lean_dec.exit6

7:                                                ; preds = %3
  %8 = load i32, ptr %2, align 4, !tbaa !8
  %9 = icmp sgt i32 %8, 1
  br i1 %9, label %10, label %12, !prof !11

10:                                               ; preds = %7
  %11 = add nsw i32 %8, -1
  store i32 %11, ptr %2, align 4, !tbaa !8
  br label %lean_dec.exit6

12:                                               ; preds = %7
  %.not.i = icmp eq i32 %8, 0
  br i1 %.not.i, label %lean_dec.exit6, label %13

13:                                               ; preds = %12
  tail call void @lean_dec_ref_cold(ptr noundef nonnull %2) #4
  br label %lean_dec.exit6

lean_dec.exit6:                                   ; preds = %13, %12, %10, %3
  %14 = ptrtoint ptr %0 to i64
  %15 = and i64 %14, 1
  %.not9 = icmp eq i64 %15, 0
  br i1 %.not9, label %16, label %lean_dec.exit

16:                                               ; preds = %lean_dec.exit6
  %17 = load i32, ptr %0, align 4, !tbaa !8
  %18 = icmp sgt i32 %17, 1
  br i1 %18, label %19, label %21, !prof !11

19:                                               ; preds = %16
  %20 = add nsw i32 %17, -1
  store i32 %20, ptr %0, align 4, !tbaa !8
  br label %lean_dec.exit

21:                                               ; preds = %16
  %.not.i7 = icmp eq i32 %17, 0
  br i1 %.not.i7, label %lean_dec.exit, label %22

22:                                               ; preds = %21
  tail call void @lean_dec_ref_cold(ptr noundef nonnull %0) #4
  br label %lean_dec.exit

lean_dec.exit:                                    ; preds = %22, %21, %19, %lean_dec.exit6
  %23 = zext i8 %4 to i64
  %24 = shl nuw nsw i64 %23, 1
  %25 = or disjoint i64 %24, 1
  %26 = inttoptr i64 %25 to ptr
  ret ptr %26
}